target datalayout = "e-m:e-p270:32:32-p271:32:32-p272:64:64-i64:64-i128:128-f80:128-n8:16:32:64-S128"
target triple = "x86_64-pc-linux-gnu"

%struct.Cof_Man_t_ = type { ptr, ptr, ptr, i32, i32, i32, ptr, i32, ptr, i32 }
%struct.Cof_Obj_t_ = type { i32, i32, i32, i32, i32, i32, [0 x %struct.Cof_Fan_t_] }
%struct.Cof_Fan_t_ = type { i32 }

; Function Attrs: inlinehint nounwind uwtable
define internal ptr @Cof_ObjFanin(ptr noundef %0, i32 noundef %1) #3 {
  %3 = alloca ptr, align 8
  %4 = alloca i32, align 4
  store ptr %0, ptr %3, align 8, !tbaa !42
  store i32 %1, ptr %4, align 4, !tbaa !8
  %5 = load ptr, ptr %3, align 8, !tbaa !42
  %6 = load ptr, ptr %3, align 8, !tbaa !42
  %7 = getelementptr inbounds nuw %struct.Cof_Obj_t_, ptr %6, i32 0, i32 6
  %8 = load i32, ptr %4, align 4, !tbaa !8
  %9 = sext i32 %8 to i64
  %10 = getelementptr inbounds [0 x %struct.Cof_Fan_t_], ptr %7, i64 0, i64 %9
  %11 = load i32, ptr %10, align 4
  %12 = and i32 %11, 2147483647
  %13 = sext i32 %12 to i64
  %14 = sub i64 0, %13
  %15 = getelementptr inbounds i32, ptr %5, i64 %14
  ret ptr %15
}

; Function Attrs: inlinehint nounwind uwtable
define internal i32 @Cof_ObjIsCi(ptr noundef %0) #3 {
  %2 = alloca ptr, align 8
  store ptr %0, ptr %2, align 8, !tbaa !42
  %3 = load ptr, ptr %2, align 8, !tbaa !42
  %4 = load i32, ptr %3, align 4
  %5 = and i32 %4, 1
  %6 = icmp ne i32 %5, 0
  br i1 %6, label %7, label %13

7:                                                ; preds = %1
  %8 = load ptr, ptr %2, align 8, !tbaa !42
  %9 = load i32, ptr %8, align 4
  %10 = lshr i32 %9, 4
  %11 = and i32 %10, 15
  %12 = icmp eq i32 %11, 0
  br label %13

13:                                               ; preds = %7, %1
  %14 = phi i1 [ false, %1 ], [ %12, %7 ]
  %15 = zext i1 %14 to i32
  ret i32 %15
}

; Function Attrs: inlinehint nounwind uwtable
define internal void @Cof_ObjSetTravIdCurrent(ptr noundef %0, ptr noundef %1) #3 {
  %3 = alloca ptr, align 8
  %4 = alloca ptr, align 8
  store ptr %0, ptr %3, align 8, !tbaa !10
  store ptr %1, ptr %4, align 8, !tbaa !42
  %5 = load ptr, ptr %3, align 8, !tbaa !10
  %6 = getelementptr inbounds nuw %struct.Cof_Man_t_, ptr %5, i32 0, i32 5
  %7 = load i32, ptr %6, align 8, !tbaa !63
  %8 = load ptr, ptr %4, align 8, !tbaa !42
  %9 = getelementptr inbounds nuw %struct.Cof_Obj_t_, ptr %8, i32 0, i32 2
  store i32 %7, ptr %9, align 4, !tbaa !46
  ret void
}

; Function Attrs: inlinehint nounwind uwtable
define internal i32 @Cof_ObjIsTravIdCurrent(ptr noundef %0, ptr noundef %1) #3 {
  %3 = alloca ptr, align 8
  %4 = alloca ptr, align 8
  store ptr %0, ptr %3, align 8, !tbaa !10
  store ptr %1, ptr %4, align 8, !tbaa !42
  %5 = load ptr, ptr %4, align 8, !tbaa !42
  %6 = getelementptr inbounds nuw %struct.Cof_Obj_t_, ptr %5, i32 0, i32 2
  %7 = load i32, ptr %6, align 4, !tbaa !46
  %8 = load ptr, ptr %3, align 8, !tbaa !10
  %9 = getelementptr inbounds nuw %struct.Cof_Man_t_, ptr %8, i32 0, i32 5
  %10 = load i32, ptr %9, align 8, !tbaa !63
  %11 = icmp eq i32 %7, %10
  %12 = zext i1 %11 to i32
  ret i32 %12
}

; Function Attrs: nounwind uwtable
define i32 @Cof_ManTfiSize_rec(ptr noundef %0, ptr noundef %1) #0 {
  %3 = alloca i32, align 4
  %4 = alloca ptr, align 8
  %5 = alloca ptr, align 8
  %6 = alloca ptr, align 8
  %7 = alloca i32, align 4
  %8 = alloca i32, align 4
  %9 = alloca i32, align 4
  store ptr %0, ptr %4, align 8, !tbaa !10
  store ptr %1, ptr %5, align 8, !tbaa !42
  call void @llvm.lifetime.start.p0(i64 8, ptr %6) #13
  call void @llvm.lifetime.start.p0(i64 4, ptr %7) #13
  call void @llvm.lifetime.start.p0(i64 4, ptr %8) #13
  store i32 0, ptr %8, align 4, !tbaa !8
  %10 = load ptr, ptr %4, align 8, !tbaa !10
  %11 = load ptr, ptr %5, align 8, !tbaa !42
  %12 = call i32 @Cof_ObjIsTravIdCurrent(ptr noundef %10, ptr noundef %11)
  %13 = icmp ne i32 %12, 0
  br i1 %13, label %14, label %15

14:                                               ; preds = %2
  store i32 0, ptr %3, align 4
  store i32 1, ptr %9, align 4
  br label %49

15:                                               ; preds = %2
  %16 = load ptr, ptr %4, align 8, !tbaa !10
  %17 = load ptr, ptr %5, align 8, !tbaa !42
  call void @Cof_ObjSetTravIdCurrent(ptr noundef %16, ptr noundef %17)
  %18 = load ptr, ptr %5, align 8, !tbaa !42
  %19 = call i32 @Cof_ObjIsCi(ptr noundef %18)
  %20 = icmp ne i32 %19, 0
  br i1 %20, label %21, label %22

21:                                               ; preds = %15
  store i32 0, ptr %3, align 4
  store i32 1, ptr %9, align 4
  br label %49

22:                                               ; preds = %15
  store i32 0, ptr %7, align 4, !tbaa !8
  br label %23

23:                                               ; preds = %43, %22
  %24 = load i32, ptr %7, align 4, !tbaa !8
  %25 = load ptr, ptr %5, align 8, !tbaa !42
  %26 = load i32, ptr %25, align 4
  %27 = lshr i32 %26, 4
  %28 = and i32 %27, 15
  %29 = icmp ult i32 %24, %28
  br i1 %29, label %30, label %35

30:                                               ; preds = %23
  %31 = load ptr, ptr %5, align 8, !tbaa !42
  %32 = load i32, ptr %7, align 4, !tbaa !8
  %33 = call ptr @Cof_ObjFanin(ptr noundef %31, i32 noundef %32)
  store ptr %33, ptr %6, align 8, !tbaa !42
  %34 = icmp ne ptr %33, null
  br label %35

35:                                               ; preds = %30, %23
  %36 = phi i1 [ false, %23 ], [ %34, %30 ]
  br i1 %36, label %37, label %46

37:                                               ; preds = %35
  %38 = load ptr, ptr %4, align 8, !tbaa !10
  %39 = load ptr, ptr %6, align 8, !tbaa !42
  %40 = call i32 @Cof_ManTfiSize_rec(ptr noundef %38, ptr noundef %39)
  %41 = load i32, ptr %8, align 4, !tbaa !8
  %42 = add i32 %41, %40
  store i32 %42, ptr %8, align 4, !tbaa !8
  br label %43

43:                                               ; preds = %37
  %44 = load i32, ptr %7, align 4, !tbaa !8
  %45 = add i32 %44, 1
  store i32 %45, ptr %7, align 4, !tbaa !8
  br label %23, !llvm.loop !67

46:                                               ; preds = %35
  %47 = load i32, ptr %8, align 4, !tbaa !8
  %48 = add i32 1, %47
  store i32 %48, ptr %3, align 4
  store i32 1, ptr %9, align 4
  br label %49

49:                                               ; preds = %46, %21, %14
  call void @llvm.lifetime.end.p0(i64 4, ptr %8) #13
  call void @llvm.lifetime.end.p0(i64 4, ptr %7) #13
  call void @llvm.lifetime.end.p0(i64 8, ptr %6) #13
  %50 = load i32, ptr %3, align 4
  ret i32 %50
}