; Function Attrs: nofree nosync nounwind memory(argmem: readwrite) uwtable
define i32 @Cof_ManTfiSize_rec(ptr noundef readonly captures(none) %0, ptr noundef captures(none) %1) local_unnamed_addr #6 {
  %3 = getelementptr i8, ptr %0, i64 32
  %.val = load i32, ptr %3, align 8, !tbaa !54
  %4 = getelementptr i8, ptr %1, i64 8
  %.val19 = load i32, ptr %4, align 4, !tbaa !46
  %.not = icmp eq i32 %.val19, %.val
  br i1 %.not, label %.critedge, label %5

5:                                                ; preds = %2
  store i32 %.val, ptr %4, align 4, !tbaa !46
  %.val21 = load i32, ptr %1, align 4
  %6 = and i32 %.val21, 241
  %narrow.i.not = icmp eq i32 %6, 1
  br i1 %narrow.i.not, label %.critedge, label %.preheader

.preheader:                                       ; preds = %5
  %7 = and i32 %.val21, 240
  %.not24 = icmp eq i32 %7, 0
  br i1 %.not24, label %.critedge, label %.lr.ph

.lr.ph:                                           ; preds = %.preheader
  %8 = getelementptr inbounds nuw i8, ptr %1, i64 24
  br label %9

9:                                                ; preds = %.lr.ph, %9
  %indvars.iv = phi i64 [ 0, %.lr.ph ], [ %indvars.iv.next, %9 ]
  %.023 = phi i32 [ 0, %.lr.ph ], [ %17, %9 ]
  %10 = getelementptr inbounds nuw [0 x %struct.Cof_Fan_t_], ptr %8, i64 0, i64 %indvars.iv
  %11 = load i32, ptr %10, align 4
  %12 = and i32 %11, 2147483647
  %13 = zext nneg i32 %12 to i64
  %14 = sub nsw i64 0, %13
  %15 = getelementptr inbounds i32, ptr %1, i64 %14
  %16 = tail call i32 @Cof_ManTfiSize_rec(ptr noundef %0, ptr noundef nonnull %15)
  %17 = add i32 %16, %.023
  %indvars.iv.next = add nuw nsw i64 %indvars.iv, 1
  %18 = load i32, ptr %1, align 4
  %19 = lshr i32 %18, 4
  %20 = and i32 %19, 15
  %21 = zext nneg i32 %20 to i64
  %22 = icmp samesign ult i64 %indvars.iv.next, %21
  br i1 %22, label %9, label %.critedge.loopexit, !llvm.loop !59

.critedge.loopexit:                               ; preds = %9
  %23 = add i32 %17, 1
  br label %.critedge

.critedge:                                        ; preds = %.preheader, %.critedge.loopexit, %5, %2
  %.015 = phi i32 [ 0, %2 ], [ 0, %5 ], [ 1, %.preheader ], [ %23, %.critedge.loopexit ]
  ret i32 %.015
}